
Symbol table '.dynsym' contains 447 entries:
   Num:    Value  Size Type    Bind   Vis      Ndx Name
     0: 00000000     0 NOTYPE  LOCAL  DEFAULT  UND 
     1: 00000000     0 FUNC    GLOBAL DEFAULT  UND __cxa_finalize
     2: 00000000     0 FUNC    GLOBAL DEFAULT  UND __cxa_atexit
     3: 00000000     0 FUNC    GLOBAL DEFAULT  UND memset
     4: 00000000     0 FUNC    GLOBAL DEFAULT  UND _ZSt18_Rb_tree_decrementPSt18_Rb_tree_node_base
     5: 00000000     0 FUNC    GLOBAL DEFAULT  UND _Znwj
     6: 00000000     0 FUNC    GLOBAL DEFAULT  UND _ZSt29_Rb_tree_insert_and_rebalancebPSt18_Rb_tree_node_baseS0_RS_
     7: 00000000     0 FUNC    GLOBAL DEFAULT  UND glGenBuffers
     8: 00000000     0 FUNC    GLOBAL DEFAULT  UND _ZdlPv
     9: 00000000     0 FUNC    GLOBAL DEFAULT  UND memmove
    10: 00000000     0 FUNC    GLOBAL DEFAULT  UND _ZSt18_Rb_tree_incrementPKSt18_Rb_tree_node_base
    11: 00000000     0 FUNC    GLOBAL DEFAULT  UND _ZSt28_Rb_tree_rebalance_for_erasePSt18_Rb_tree_node_baseRS_
    12: 00000000     0 FUNC    GLOBAL DEFAULT  UND glBindBuffer
    13: 00000000     0 FUNC    GLOBAL DEFAULT  UND glBufferData
    14: 00000000     0 FUNC    GLOBAL DEFAULT  UND glBufferSubData
    15: 00000000     0 FUNC    GLOBAL DEFAULT  UND _ZNKSs7compareERKSs
    16: 00000000     0 FUNC    GLOBAL DEFAULT  UND _ZNSsC1ERKSs
    17: 00000000     0 FUNC    GLOBAL DEFAULT  UND _ZSt18_Rb_tree_incrementPSt18_Rb_tree_node_base
    18: 00000000     0 FUNC    GLOBAL DEFAULT  UND _ZNSsD1Ev
    19: 00000000     0 FUNC    GLOBAL DEFAULT  UND _ZNKSs7compareEPKc
    20: 00000000     0 FUNC    GLOBAL DEFAULT  UND glVertexAttribPointer
    21: 00000000     0 FUNC    GLOBAL DEFAULT  UND glEnableVertexAttribArray
    22: 00000000     0 FUNC    GLOBAL DEFAULT  UND glUseProgram
    23: 00000000     0 FUNC    GLOBAL DEFAULT  UND glUniform1fv
    24: 00000000     0 FUNC    GLOBAL DEFAULT  UND glUniform4fv
    25: 00000000     0 FUNC    GLOBAL DEFAULT  UND glUniform4iv
    26: 00000000     0 FUNC    GLOBAL DEFAULT  UND glUniformMatrix4fv
    27: 00000000     0 FUNC    GLOBAL DEFAULT  UND glUniform2fv
    28: 00000000     0 FUNC    GLOBAL DEFAULT  UND glUniform3fv
    29: 00000000     0 FUNC    GLOBAL DEFAULT  UND glUniform1iv
    30: 00000000     0 FUNC    GLOBAL DEFAULT  UND glUniform2iv
    31: 00000000     0 FUNC    GLOBAL DEFAULT  UND glUniform3iv
    32: 00000000     0 FUNC    GLOBAL DEFAULT  UND glUniformMatrix2fv
    33: 00000000     0 FUNC    GLOBAL DEFAULT  UND glUniformMatrix3fv
    34: 00000000     0 FUNC    GLOBAL DEFAULT  UND glUniform1i
    35: 00000000     0 FUNC    GLOBAL DEFAULT  UND glCreateShader
    36: 00000000     0 FUNC    GLOBAL DEFAULT  UND glShaderSource
    37: 00000000     0 FUNC    GLOBAL DEFAULT  UND glCompileShader
    38: 00000000     0 FUNC    GLOBAL DEFAULT  UND glGetShaderiv
    39: 00000000     0 FUNC    GLOBAL DEFAULT  UND glGetShaderInfoLog
    40: 00000000     0 FUNC    GLOBAL DEFAULT  UND exit
    41: 00000000     0 FUNC    GLOBAL DEFAULT  UND glCreateProgram
    42: 00000000     0 FUNC    GLOBAL DEFAULT  UND glAttachShader
    43: 00000000     0 FUNC    GLOBAL DEFAULT  UND glDeleteShader
    44: 00000000     0 FUNC    GLOBAL DEFAULT  UND glLinkProgram
    45: 00000000     0 FUNC    GLOBAL DEFAULT  UND glGetProgramiv
    46: 00000000     0 FUNC    GLOBAL DEFAULT  UND glGetProgramInfoLog
    47: 00000000     0 FUNC    GLOBAL DEFAULT  UND glGetActiveUniform
    48: 00000000     0 FUNC    GLOBAL DEFAULT  UND _ZNSsC1EPKcRKSaIcE
    49: 00000000     0 FUNC    GLOBAL DEFAULT  UND glBindAttribLocation
    50: 00000000     0 FUNC    GLOBAL DEFAULT  UND glGetActiveAttrib
    51: 00000000     0 FUNC    GLOBAL DEFAULT  UND _ZNSs4swapERSs
    52: 00000000     0 FUNC    GLOBAL DEFAULT  UND _Znaj
    53: 00000000     0 FUNC    GLOBAL DEFAULT  UND glGetUniformLocation
    54: 00000000     0 FUNC    GLOBAL DEFAULT  UND __stack_chk_fail
    55: 00000000     0 FUNC    GLOBAL DEFAULT  UND __aeabi_atexit
    56: 00000000     0 FUNC    GLOBAL DEFAULT  UND glDrawArrays
    57: 00000000     0 FUNC    GLOBAL DEFAULT  UND _ZNSt8ios_base4InitC1Ev
    58: 00000000     0 FUNC    GLOBAL DEFAULT  UND AAssetManager_open
    59: 00000000     0 FUNC    GLOBAL DEFAULT  UND AAsset_getBuffer
    60: 00000000     0 FUNC    GLOBAL DEFAULT  UND AAsset_getLength
    61: 00000000     0 FUNC    GLOBAL DEFAULT  UND _ZNSsC1EPKcjRKSaIcE
    62: 00000000     0 FUNC    GLOBAL DEFAULT  UND AAsset_close
    63: 00000000     0 FUNC    GLOBAL DEFAULT  UND _ZdaPv
    64: 00000000     0 FUNC    GLOBAL DEFAULT  UND _ZNSs6appendEPKc
    65: 00000000     0 FUNC    GLOBAL DEFAULT  UND _ZNSs6appendERKSs
    66: 00000000     0 FUNC    GLOBAL DEFAULT  UND _ZNSs6insertEjRKSs
    67: 00000000     0 FUNC    GLOBAL DEFAULT  UND strlen
    68: 00000000     0 FUNC    GLOBAL DEFAULT  UND _ZNSs7reserveEj
    69: 00000000     0 FUNC    GLOBAL DEFAULT  UND _ZNSs6appendEPKcj
    70: 00000000     0 FUNC    GLOBAL DEFAULT  UND glDeleteBuffers
    71: 00000000     0 FUNC    GLOBAL DEFAULT  UND glDeleteProgram
    72: 00000000     0 FUNC    GLOBAL DEFAULT  UND __android_log_print
    73: 00000000     0 FUNC    GLOBAL DEFAULT  UND glDeleteTextures
    74: 00000000     0 FUNC    GLOBAL DEFAULT  UND _ZNKSs4findEPKcj
    75: 00000000     0 FUNC    GLOBAL DEFAULT  UND glViewport
    76: 00000000     0 FUNC    GLOBAL DEFAULT  UND glDisable
    77: 00000000     0 FUNC    GLOBAL DEFAULT  UND glDrawElements
    78: 00000000     0 FUNC    GLOBAL DEFAULT  UND glEnable
    79: 00000000     0 FUNC    GLOBAL DEFAULT  UND glBlendFunc
    80: 00000000     0 FUNC    GLOBAL DEFAULT  UND cos
    81: 00000000     0 FUNC    GLOBAL DEFAULT  UND AAssetManager_fromJava
    82: 00000000     0 FUNC    GLOBAL DEFAULT  UND glGenTextures
    83: 00000000     0 FUNC    GLOBAL DEFAULT  UND glActiveTexture
    84: 00000000     0 FUNC    GLOBAL DEFAULT  UND glBindTexture
    85: 00000000     0 FUNC    GLOBAL DEFAULT  UND glTexImage2D
    86: 00000000     0 FUNC    GLOBAL DEFAULT  UND glTexParameteri
    87: 00000000     0 FUNC    GLOBAL DEFAULT  UND _ZStlsISt11char_traitsIcEERSt13basic_ostreamIcT_ES5_PKc
    88: 00000000     0 FUNC    GLOBAL DEFAULT  UND _ZStlsIcSt11char_traitsIcESaIcEERSt13basic_ostreamIT_T0_ES7_RKSbIS4_S5_T1_E
    89: 00000000     0 FUNC    GLOBAL DEFAULT  UND _ZSt4endlIcSt11char_traitsIcEERSt13basic_ostreamIT_T0_ES6_
    90: 00000000     0 FUNC    GLOBAL DEFAULT  UND glBindFramebuffer
    91: 00000000     0 FUNC    GLOBAL DEFAULT  UND glGenFramebuffers
    92: 00000000     0 FUNC    GLOBAL DEFAULT  UND glFramebufferTexture2D
    93: 00000000     0 FUNC    GLOBAL DEFAULT  UND free
    94: 00000000     0 FUNC    GLOBAL DEFAULT  UND realloc
    95: 00000000     0 FUNC    GLOBAL DEFAULT  UND malloc
    96: 00000000     0 FUNC    GLOBAL DEFAULT  UND fopen
    97: 00000000     0 FUNC    GLOBAL DEFAULT  UND fseek
    98: 00000000     0 FUNC    GLOBAL DEFAULT  UND ftell
    99: 00000000     0 FUNC    GLOBAL DEFAULT  UND rewind
   100: 00000000     0 FUNC    GLOBAL DEFAULT  UND fread
   101: 00000000     0 FUNC    GLOBAL DEFAULT  UND fclose
   102: 00000000     0 FUNC    GLOBAL DEFAULT  UND fwrite
   103: 00000000     0 FUNC    GLOBAL DEFAULT  UND memcpy
   104: 00000000     0 FUNC    GLOBAL DEFAULT  UND strcmp
   105: 00000000     0 FUNC    GLOBAL DEFAULT  UND _ZNSt14basic_ofstreamIcSt11char_traitsIcEEC1EPKcSt13_Ios_Openmode
   106: 00000000     0 FUNC    GLOBAL DEFAULT  UND _ZNSo5writeEPKci
   107: 00000000     0 FUNC    GLOBAL DEFAULT  UND _ZNSt14basic_ofstreamIcSt11char_traitsIcEED1Ev
   108: 00000000     0 FUNC    GLOBAL DEFAULT  UND _ZSt20__throw_length_errorPKc
   109: 00000000     0 FUNC    GLOBAL DEFAULT  UND _ZNSt14basic_ifstreamIcSt11char_traitsIcEEC1EPKcSt13_Ios_Openmode
   110: 00000000     0 FUNC    GLOBAL DEFAULT  UND _ZNSi5seekgExSt12_Ios_Seekdir
   111: 00000000     0 FUNC    GLOBAL DEFAULT  UND _ZNSi5tellgEv
   112: 00000000     0 FUNC    GLOBAL DEFAULT  UND _ZNSi4readEPci
   113: 00000000     0 FUNC    GLOBAL DEFAULT  UND _ZNSt14basic_ifstreamIcSt11char_traitsIcEED1Ev
   114: 00000000     0 FUNC    GLOBAL DEFAULT  UND clock_gettime
   115: 00000000     0 FUNC    GLOBAL DEFAULT  UND _ZNKSt9basic_iosIcSt11char_traitsIcEEcvPvEv
   116: 00000000     0 FUNC    GLOBAL DEFAULT  UND _ZStrsIcSt11char_traitsIcESaIcEERSt13basic_istreamIT_T0_ES7_RSbIS4_S5_T1_E
   117: 00000000     0 FUNC    GLOBAL DEFAULT  UND _ZNSi10_M_extractIdEERSiRT_
   118: 00000000     0 FUNC    GLOBAL DEFAULT  UND _ZNSirsERd
   119: 00000000     0 FUNC    GLOBAL DEFAULT  UND _ZNSt19basic_ostringstreamIcSt11char_traitsIcESaIcEEC1ESt13_Ios_Openmode
   120: 00000000     0 FUNC    GLOBAL DEFAULT  UND _ZNSolsEi
   121: 00000000     0 FUNC    GLOBAL DEFAULT  UND _ZNKSt15basic_stringbufIcSt11char_traitsIcESaIcEE3strEv
   122: 00000000     0 FUNC    GLOBAL DEFAULT  UND _ZNSt19basic_istringstreamIcSt11char_traitsIcESaIcEEC1ERKSsSt13_Ios_Openmode
   123: 00000000     0 FUNC    GLOBAL DEFAULT  UND _ZNSt19basic_istringstreamIcSt11char_traitsIcESaIcEED1Ev
   124: 00000000     0 FUNC    GLOBAL DEFAULT  UND _ZNSt19basic_ostringstreamIcSt11char_traitsIcESaIcEED1Ev
   125: 00000000     0 FUNC    GLOBAL DEFAULT  UND fmod
   126: 00000000     0 FUNC    GLOBAL DEFAULT  UND floor
   127: 00000000     0 FUNC    GLOBAL DEFAULT  UND ceil
   128: 00000000     0 FUNC    GLOBAL DEFAULT  UND raise
   129: 00000000     0 FUNC    GLOBAL DEFAULT  UND __gnu_Unwind_Find_exidx
   130: 00000000     0 FUNC    GLOBAL DEFAULT  UND abort
   131: 00000000     0 FUNC    GLOBAL DEFAULT  UND __cxa_begin_cleanup
   132: 00000000     0 FUNC    GLOBAL DEFAULT  UND __cxa_type_match
   133: 00009181     4 FUNC    GLOBAL DEFAULT    8 __aeabi_unwind_cpp_pr0
   134: 00007d2d     0 FUNC    GLOBAL DEFAULT    8 __aeabi_uidiv
   135: 00007dd9     0 FUNC    GLOBAL DEFAULT    8 __aeabi_idiv
   136: 00007dbd    26 FUNC    GLOBAL DEFAULT    8 __aeabi_uidivmod
   137: 00007e9d    26 FUNC    GLOBAL DEFAULT    8 __aeabi_idivmod
   138: 00009185     4 FUNC    WEAK   DEFAULT    8 __aeabi_unwind_cpp_pr1
   139: 0000f035     4 FUNC    WEAK   DEFAULT    8 __aeabi_unwind_cpp_pr2
   140: 00000000     0 OBJECT  GLOBAL DEFAULT  UND _ZNSs4_Rep20_S_empty_rep_storageE
   141: 00000000     0 OBJECT  GLOBAL DEFAULT  UND __stack_chk_guard
   142: 00000000     0 FUNC    GLOBAL DEFAULT  UND _ZNSt8ios_base4InitD1Ev
   143: 00000000     0 OBJECT  GLOBAL DEFAULT  UND _ZSt4cerr
   144: 00000000     0 OBJECT  GLOBAL DEFAULT  UND _ZSt4cout
   145: 00000000     0 FUNC    GLOBAL DEFAULT  UND __cxa_call_unexpected
   146: 00014d1d    22 FUNC    GLOBAL DEFAULT    8 _Z16lodepng_decode32PPhPjS1_PKhj
   147: 0000b451  2288 FUNC    GLOBAL DEFAULT    8 _ZN8renderer6renderEP13AAssetManager
   148: 0000ddd1  2812 FUNC    GLOBAL DEFAULT    8 _ZN5Curve14updateRendererEv
   149: 0000d1dd   144 FUNC    GLOBAL DEFAULT    8 Java_com_sonymobile_experienceflow_renderer_CurveRenderer_init
   150: 0000d26d    38 FUNC    GLOBAL DEFAULT    8 Java_com_sonymobile_experienceflow_renderer_CurveRenderer_render
   151: 0000d293    42 FUNC    GLOBAL DEFAULT    8 Java_com_sonymobile_experienceflow_renderer_CurveRenderer_requestColors
   152: 0000d2bd    52 FUNC    GLOBAL DEFAULT    8 Java_com_sonymobile_experienceflow_renderer_CurveRenderer_updateScreenLayout
   153: 0000d2f1    28 FUNC    GLOBAL DEFAULT    8 Java_com_sonymobile_experienceflow_renderer_CurveRenderer_touchDown
   154: 0000d30d    28 FUNC    GLOBAL DEFAULT    8 Java_com_sonymobile_experienceflow_renderer_CurveRenderer_touch
   155: 0000d329    28 FUNC    GLOBAL DEFAULT    8 Java_com_sonymobile_experienceflow_renderer_CurveRenderer_touchUp
   156: 0000d345    20 FUNC    GLOBAL DEFAULT    8 Java_com_sonymobile_experienceflow_renderer_CurveRenderer_activate
   157: 0000d359    20 FUNC    GLOBAL DEFAULT    8 Java_com_sonymobile_experienceflow_renderer_CurveRenderer_deactivate
   158: 0000d36d    20 FUNC    GLOBAL DEFAULT    8 Java_com_sonymobile_experienceflow_renderer_CurveRenderer_getSleepRecommendation
   159: 0000d381    20 FUNC    GLOBAL DEFAULT    8 _ZN8renderer4initEP13AAssetManager
   160: 0000d395   116 FUNC    GLOBAL DEFAULT    8 _ZN8renderer7getfileEP13AAssetManagerSs
   161: 0000d409   616 FUNC    GLOBAL DEFAULT    8 _ZN8renderer15buildShaderFileEP13AAssetManagerSsSs
   162: 0000d671  1368 FUNC    GLOBAL DEFAULT    8 _ZN7program13createProgramERSt6vectorIjSaIjEE
   163: 00011ca5    48 FUNC    GLOBAL DEFAULT    8 _Z13lodepng_crc32PKhj
   164: 00013921  2864 FUNC    GLOBAL DEFAULT    8 _Z14lodepng_decodePPhPjS1_P12LodePNGStatePKhj
   165: 00014549  1852 FUNC    GLOBAL DEFAULT    8 _Z14lodepng_encodePPhPjPKhjjP12LodePNGState
   166: 00012d3d   840 FUNC    GLOBAL DEFAULT    8 _Z15lodepng_convertPhPKhP16LodePNGColorModePKS2_jjj
   167: 000113b5  1892 FUNC    GLOBAL DEFAULT    8 _Z15lodepng_deflatePPhPjPKhjPK23LodePNGCompressSettings
   168: 0001211d    32 FUNC    GLOBAL DEFAULT    8 _Z15lodepng_get_bppPK16LodePNGColorMode
   169: 00010dfd  1462 FUNC    GLOBAL DEFAULT    8 _Z15lodepng_inflatePPhPjPKhjPK25LodePNGDecompressSettings
   170: 0001381b   262 FUNC    GLOBAL DEFAULT    8 _Z15lodepng_inspectPjS_P12LodePNGStatePKhj
   171: 000129ed   142 FUNC    GLOBAL DEFAULT    8 _Z16lodepng_add_textP11LodePNGInfoPKcS2_
   172: 00014d33    22 FUNC    GLOBAL DEFAULT    8 _Z16lodepng_decode24PPhPjS1_PKhj
   173: 00014e1b    22 FUNC    GLOBAL DEFAULT    8 _Z16lodepng_encode24PPhPjPKhjj
   174: 00014e05    22 FUNC    GLOBAL DEFAULT    8 _Z16lodepng_encode32PPhPjPKhjj
   175: 00012a7f   270 FUNC    GLOBAL DEFAULT    8 _Z17lodepng_add_itextP11LodePNGInfoPKcS2_S2_S2_
   176: 00012c07   266 FUNC    GLOBAL DEFAULT    8 _Z17lodepng_info_copyP11LodePNGInfoPKS_
   177: 00012b8d    72 FUNC    GLOBAL DEFAULT    8 _Z17lodepng_info_initP11LodePNGInfo
   178: 00012d11    44 FUNC    GLOBAL DEFAULT    8 _Z17lodepng_info_swapP11LodePNGInfoS0_
   179: 00010ac5   120 FUNC    GLOBAL DEFAULT    8 _Z17lodepng_load_filePPhPjPKc
   180: 00010b3d    52 FUNC    GLOBAL DEFAULT    8 _Z17lodepng_save_filePKhjPKc
   181: 00011d3d     4 FUNC    GLOBAL DEFAULT    8 _Z18lodepng_chunk_dataPh
   182: 00011d8f    14 FUNC    GLOBAL DEFAULT    8 _Z18lodepng_chunk_nextPh
   183: 00011cd9    20 FUNC    GLOBAL DEFAULT    8 _Z18lodepng_chunk_typePcPKh
   184: 000129e9     4 FUNC    GLOBAL DEFAULT    8 _Z18lodepng_clear_textP11LodePNGInfo
   185: 00014e95   992 FUNC    GLOBAL DEFAULT    8 _Z18lodepng_error_textj
   186: 000144b3   150 FUNC    GLOBAL DEFAULT    8 _Z18lodepng_state_copyP12LodePNGStatePKS_
   187: 00014ca3    42 FUNC    GLOBAL DEFAULT    8 _Z18lodepng_state_initP12LodePNGState
   188: 00012a7b     4 FUNC    GLOBAL DEFAULT    8 _Z19lodepng_clear_itextP11LodePNGInfo
   189: 00014d49    62 FUNC    GLOBAL DEFAULT    8 _Z19lodepng_decode_filePPhPjS1_PKc16LodePNGColorTypej
   190: 00014e31    60 FUNC    GLOBAL DEFAULT    8 _Z19lodepng_encode_filePKcPKhjj16LodePNGColorTypej
   191: 000120c1    90 FUNC    GLOBAL DEFAULT    8 _Z19lodepng_palette_addP16LodePNGColorModehhhh
   192: 00013085    48 FUNC    GLOBAL DEFAULT    8 _Z20getValueRequiredBitst
   193: 00011dab    86 FUNC    GLOBAL DEFAULT    8 _Z20lodepng_chunk_appendPPhPjPKh
   194: 00011e37   124 FUNC    GLOBAL DEFAULT    8 _Z20lodepng_chunk_createPPhPjjPKcPKh
   195: 00011cd5     4 FUNC    GLOBAL DEFAULT    8 _Z20lodepng_chunk_lengthPKh
   196: 00012931    28 FUNC    GLOBAL DEFAULT    8 _Z20lodepng_get_channelsPK16LodePNGColorMode
   197: 000129b1    20 FUNC    GLOBAL DEFAULT    8 _Z20lodepng_get_raw_sizejjPK16LodePNGColorMode
   198: 00012bd5    50 FUNC    GLOBAL DEFAULT    8 _Z20lodepng_info_cleanupP11LodePNGInfo
   199: 00010aad    22 FUNC    GLOBAL DEFAULT    8 _Z20lodepng_read32bitIntPKh
   200: 00011d2d     8 FUNC    GLOBAL DEFAULT    8 _Z21lodepng_chunk_privatePKh
   201: 00014d9b    20 FUNC    GLOBAL DEFAULT    8 _Z21lodepng_decode24_filePPhPjS1_PKc
   202: 00014d87    20 FUNC    GLOBAL DEFAULT    8 _Z21lodepng_decode32_filePPhPjS1_PKc
   203: 00014ccd    80 FUNC    GLOBAL DEFAULT    8 _Z21lodepng_decode_memoryPPhPjS1_PKhj16LodePNGColorTypej
   204: 00014e81    20 FUNC    GLOBAL DEFAULT    8 _Z21lodepng_encode24_filePKcPKhjj
   205: 00014e6d    20 FUNC    GLOBAL DEFAULT    8 _Z21lodepng_encode32_filePKcPKhjj
   206: 00014db1    84 FUNC    GLOBAL DEFAULT    8 _Z21lodepng_encode_memoryPPhPjPKhjj16LodePNGColorTypej
   207: 0001295d     8 FUNC    GLOBAL DEFAULT    8 _Z21lodepng_is_alpha_typePK16LodePNGColorMode
   208: 0001205d    20 FUNC    GLOBAL DEFAULT    8 _Z21lodepng_palette_clearP16LodePNGColorMode
   209: 00014463    22 FUNC    GLOBAL DEFAULT    8 _Z21lodepng_state_cleanupP12LodePNGState
   210: 00011bc5   148 FUNC    GLOBAL DEFAULT    8 _Z21lodepng_zlib_compressPPhPjPKhjPK23LodePNGCompressSettings
   211: 0001298f    34 FUNC    GLOBAL DEFAULT    8 _Z22lodepng_can_have_alphaPK16LodePNGColorMode
   212: 00011d25     8 FUNC    GLOBAL DEFAULT    8 _Z23lodepng_chunk_ancillaryPKh
   213: 00011d45    36 FUNC    GLOBAL DEFAULT    8 _Z23lodepng_chunk_check_crcPKh
   214: 00012075    76 FUNC    GLOBAL DEFAULT    8 _Z23lodepng_color_mode_copyP16LodePNGColorModePKS_
   215: 00012045    24 FUNC    GLOBAL DEFAULT    8 _Z23lodepng_color_mode_initP16LodePNGColorMode
   216: 00012965    10 FUNC    GLOBAL DEFAULT    8 _Z23lodepng_is_palette_typePK16LodePNGColorMode
   217: 00011b19   144 FUNC    GLOBAL DEFAULT    8 _Z23lodepng_zlib_decompressPPhPjPKhjPK25LodePNGDecompressSettings
   218: 00011d41     4 FUNC    GLOBAL DEFAULT    8 _Z24lodepng_chunk_data_constPKh
   219: 00011d9d    14 FUNC    GLOBAL DEFAULT    8 _Z24lodepng_chunk_next_constPKh
   220: 00011d35     8 FUNC    GLOBAL DEFAULT    8 _Z24lodepng_chunk_safetocopyPKh
   221: 000129c5    36 FUNC    GLOBAL DEFAULT    8 _Z24lodepng_get_raw_size_lctjj16LodePNGColorTypej
   222: 000130b5  1894 FUNC    GLOBAL DEFAULT    8 _Z25lodepng_auto_choose_colorP16LodePNGColorModePKhjjPKS_18LodePNGAutoConvert
   223: 00011ced    56 FUNC    GLOBAL DEFAULT    8 _Z25lodepng_chunk_type_equalsPKhPKc
   224: 0001296f    32 FUNC    GLOBAL DEFAULT    8 _Z25lodepng_has_palette_alphaPK16LodePNGColorMode
   225: 0001294d    16 FUNC    GLOBAL DEFAULT    8 _Z25lodepng_is_greyscale_typePK16LodePNGColorMode
   226: 00011d69    38 FUNC    GLOBAL DEFAULT    8 _Z26lodepng_chunk_generate_crcPh
   227: 00012071     4 FUNC    GLOBAL DEFAULT    8 _Z26lodepng_color_mode_cleanupP16LodePNGColorMode
   228: 00010b71   562 FUNC    GLOBAL DEFAULT    8 _Z28lodepng_huffman_code_lengthsPjPKjjj
   229: 00014451    18 FUNC    GLOBAL DEFAULT    8 _Z29lodepng_decoder_settings_initP22LodePNGDecoderSettings
   230: 00014c85    30 FUNC    GLOBAL DEFAULT    8 _Z29lodepng_encoder_settings_initP22LodePNGEncoderSettings
   231: 00011c75    34 FUNC    GLOBAL DEFAULT    8 _Z30lodepng_compress_settings_initP23LodePNGCompressSettings
   232: 00011c97    12 FUNC    GLOBAL DEFAULT    8 _Z32lodepng_decompress_settings_initP25LodePNGDecompressSettings
   233: 0000dd83     4 FUNC    WEAK   DEFAULT    8 _Z3mixfff
   234: 0000dd87     4 FUNC    WEAK   DEFAULT    8 _Z5themeP13AAssetManageri
   235: 0000dd8b     4 FUNC    WEAK   DEFAULT    8 _Z9readThemeISt19basic_istringstreamIcSt11char_traitsIcESaIcEEESt3mapISs14themeparameterSt4lessISsESaISt4pairIKSsS6_EEERT_
   236: 0000dd8f     4 FUNC    WEAK   DEFAULT    8 _Z9timesinceRK8timespec
   237: 0000dd93     4 FUNC    WEAK   DEFAULT    8 _ZN11CurveClientC1Ev
   238: 0000dd97     4 FUNC    WEAK   DEFAULT    8 _ZN11CurveClientC2Ev
   239: 0000dd9b     4 FUNC    WEAK   DEFAULT    8 _ZN11framebuffer3setEjP7texture
   240: 0000dd9f     4 FUNC    WEAK   DEFAULT    8 _ZN11framebuffer4exitEv
   241: 0000dda3     4 FUNC    WEAK   DEFAULT    8 _ZN11framebuffer5enterEPS_
   242: 0000dda7     4 FUNC    WEAK   DEFAULT    8 _ZN11framebufferC1Ev
   243: 0000ddab     4 FUNC    WEAK   DEFAULT    8 _ZN11framebufferC2Ev
   244: 0000ddaf     4 FUNC    WEAK   DEFAULT    8 _ZN12LodePNGStateD0Ev
   245: 0000ddb3     4 FUNC    WEAK   DEFAULT    8 _ZN12LodePNGStateD1Ev
   246: 0000ddb7     4 FUNC    WEAK   DEFAULT    8 _ZN12LodePNGStateD2Ev
   247: 0000ddbb     4 FUNC    WEAK   DEFAULT    8 _ZN12rendererdataC1ERKS_
   248: 0000ddbf     4 FUNC    WEAK   DEFAULT    8 _ZN12rendererdataC2ERKS_
   249: 0000ddc3     4 FUNC    GLOBAL DEFAULT    8 _ZN5Curve10deactivateEv
   250: 0000ddc7     4 FUNC    GLOBAL DEFAULT    8 _ZN5Curve13requestColorsEP13AAssetManageri
   251: 0000e8d1    10 FUNC    GLOBAL DEFAULT    8 _ZN5Curve18updateScreenLayoutEiiiiii
   252: 0000e8db     4 FUNC    GLOBAL DEFAULT    8 _ZN5Curve22getSleepRecommendationEv
   253: 0000e8df     8 FUNC    GLOBAL DEFAULT    8 _ZN5Curve5touchEff
   254: 0000e8e7     8 FUNC    GLOBAL DEFAULT    8 _ZN5Curve7touchUpEff
   255: 0000e8ef     4 FUNC    GLOBAL DEFAULT    8 _ZN5Curve8activateEv
   256: 0000e8f3     8 FUNC    GLOBAL DEFAULT    8 _ZN5Curve9touchDownEff
   257: 0000e8fb     4 FUNC    GLOBAL DEFAULT    8 _ZN5CurveC1EP13AAssetManager
   258: 0000e8ff     4 FUNC    GLOBAL DEFAULT    8 _ZN5CurveC2EP13AAssetManager
   259: 0000e903   110 FUNC    GLOBAL DEFAULT    8 _ZN6buffer3setEjPvj
   260: 0000e971    82 FUNC    GLOBAL DEFAULT    8 _ZN6buffer5touchEv
   261: 0000e9c3   110 FUNC    GLOBAL DEFAULT    8 _ZN6buffer6subsetEjjPv
   262: 0000ea31    74 FUNC    GLOBAL DEFAULT    8 _ZN6buffer9addconfigEP12bufferconfig
   263: 0000ea7b    38 FUNC    GLOBAL DEFAULT    8 _ZN12bufferconfig3setEP6bufferii
   264: 0000eaa1    42 FUNC    GLOBAL DEFAULT    8 _ZN6bufferC1Eji
   265: 0000eacb    42 FUNC    GLOBAL DEFAULT    8 _ZN6bufferC2Eji
   266: 0000eaf5    48 FUNC    GLOBAL DEFAULT    8 _ZN6bufferD1Ev
   267: 0000eb25    48 FUNC    GLOBAL DEFAULT    8 _ZN6bufferD2Ev
   268: 0000eb55     4 FUNC    WEAK   DEFAULT    8 _ZN6varray6updateEv
   269: 0000eb59     4 FUNC    WEAK   DEFAULT    8 _ZN6varray9getconfigESs
   270: 0000eb5d    30 FUNC    GLOBAL DEFAULT    8 _ZN6varrayC1Ev
   271: 0000eb7b    30 FUNC    GLOBAL DEFAULT    8 _ZN6varrayC2Ev
   272: 000156e7    66 FUNC    GLOBAL DEFAULT    8 _ZN7lodepng10decompressERSt6vectorIhSaIhEEPKhjRK25LodePNGDecompressSettings
   273: 00015729    26 FUNC    GLOBAL DEFAULT    8 _ZN7lodepng10decompressERSt6vectorIhSaIhEERKS2_RK25LodePNGDecompressSettings
   274: 000152c1    36 FUNC    GLOBAL DEFAULT    8 _ZN7lodepng5StateC1ERKS0_
   275: 000152a5    28 FUNC    GLOBAL DEFAULT    8 _ZN7lodepng5StateC1Ev
   276: 000152c1    36 FUNC    GLOBAL DEFAULT    8 _ZN7lodepng5StateC2ERKS0_
   277: 000152a5    28 FUNC    GLOBAL DEFAULT    8 _ZN7lodepng5StateC2Ev
   278: 000144a1    18 FUNC    GLOBAL DEFAULT    8 _ZN7lodepng5StateD0Ev
   279: 00014479    40 FUNC    GLOBAL DEFAULT    8 _ZN7lodepng5StateD1Ev
   280: 00014479    40 FUNC    GLOBAL DEFAULT    8 _ZN7lodepng5StateD2Ev
   281: 000152e5    12 FUNC    GLOBAL DEFAULT    8 _ZN7lodepng5StateaSERKS0_
   282: 00015591   112 FUNC    GLOBAL DEFAULT    8 _ZN7lodepng6decodeERSt6vectorIhSaIhEERjS4_PKhj16LodePNGColorTypej
   283: 00015601    36 FUNC    GLOBAL DEFAULT    8 _ZN7lodepng6decodeERSt6vectorIhSaIhEERjS4_RKS2_16LodePNGColorTypej
   284: 00015625    64 FUNC    GLOBAL DEFAULT    8 _ZN7lodepng6decodeERSt6vectorIhSaIhEERjS4_RKSs16LodePNGColorTypej
   285: 000158b1    80 FUNC    GLOBAL DEFAULT    8 _ZN7lodepng6decodeERSt6vectorIhSaIhEERjS4_RNS_5StateEPKhj
   286: 00015901    28 FUNC    GLOBAL DEFAULT    8 _ZN7lodepng6decodeERSt6vectorIhSaIhEERjS4_RNS_5StateERKS2_
   287: 0001582f    56 FUNC    GLOBAL DEFAULT    8 _ZN7lodepng6encodeERKSsPKhjj16LodePNGColorTypej
   288: 00015867    74 FUNC    GLOBAL DEFAULT    8 _ZN7lodepng6encodeERKSsRKSt6vectorIhSaIhEEjj16LodePNGColorTypej
   289: 0001579f    70 FUNC    GLOBAL DEFAULT    8 _ZN7lodepng6encodeERSt6vectorIhSaIhEEPKhjj16LodePNGColorTypej
   290: 00015665    64 FUNC    GLOBAL DEFAULT    8 _ZN7lodepng6encodeERSt6vectorIhSaIhEEPKhjjRNS_5StateE
   291: 000157e5    74 FUNC    GLOBAL DEFAULT    8 _ZN7lodepng6encodeERSt6vectorIhSaIhEERKS2_jj16LodePNGColorTypej
   292: 000156a5    66 FUNC    GLOBAL DEFAULT    8 _ZN7lodepng6encodeERSt6vectorIhSaIhEERKS2_jjRNS_5StateE
   293: 00015743    66 FUNC    GLOBAL DEFAULT    8 _ZN7lodepng8compressERSt6vectorIhSaIhEEPKhjRK23LodePNGCompressSettings
   294: 00015785    26 FUNC    GLOBAL DEFAULT    8 _ZN7lodepng8compressERSt6vectorIhSaIhEERKS2_RK23LodePNGCompressSettings
   295: 00015425   154 FUNC    GLOBAL DEFAULT    8 _ZN7lodepng9load_fileERSt6vectorIhSaIhEERKSs
   296: 00015275    48 FUNC    GLOBAL DEFAULT    8 _ZN7lodepng9save_fileERKSt6vectorIhSaIhEERKSs
   297: 0000ebfd     4 FUNC    WEAK   DEFAULT    8 _ZN7program10getuniformESs
   298: 0000ec05     8 FUNC    GLOBAL DEFAULT    8 _ZN7program4bindEv
   299: 0000ec0d     4 FUNC    WEAK   DEFAULT    8 _ZN7program6shaderEjSsRSt6vectorIjSaIjEE
   300: 0000ec11     8 FUNC    GLOBAL DEFAULT    8 _ZN7program6updateEv
   301: 0000ec19     4 FUNC    WEAK   DEFAULT    8 _ZN7program9getattribESs
   302: 0000ec1d     4 FUNC    WEAK   DEFAULT    8 _ZN7programC1ERj
   303: 0000ec21     4 FUNC    WEAK   DEFAULT    8 _ZN7programC2ERj
   304: 0000ec25     4 FUNC    WEAK   DEFAULT    8 _ZN7programD1Ev
   305: 0000ec29     4 FUNC    WEAK   DEFAULT    8 _ZN7programD2Ev
   306: 0000ec2d     4 FUNC    WEAK   DEFAULT    8 _ZN7texture3setESs
   307: 0000ec31     4 FUNC    WEAK   DEFAULT    8 _ZN7texture3setEiiiiiPvb
   308: 0000ec35     4 FUNC    WEAK   DEFAULT    8 _ZN7texture4bindEi
   309: 0000ec39     4 FUNC    WEAK   DEFAULT    8 _ZN7texture4loadESs
   310: 0000ec3d     4 FUNC    WEAK   DEFAULT    8 _ZN7textureC1Ej
   311: 0000ec41     4 FUNC    WEAK   DEFAULT    8 _ZN7textureC1Ev
   312: 0000ec45     4 FUNC    WEAK   DEFAULT    8 _ZN7textureC2Ej
   313: 0000ec49     4 FUNC    WEAK   DEFAULT    8 _ZN7textureC2Ev
   314: 0000ec4d     4 FUNC    WEAK   DEFAULT    8 _ZN7uniform3setIfEEvT_
   315: 0000ec51     4 FUNC    WEAK   DEFAULT    8 _ZN7uniform3setIfEEvT_S1_
   316: 0000ec55     4 FUNC    WEAK   DEFAULT    8 _ZN7uniform3setIfEEvT_S1_S1_S1_
   317: 0000ec59     4 FUNC    WEAK   DEFAULT    8 _ZN7uniform7touchedEv
   318: 0000ec5d     4 FUNC    WEAK   DEFAULT    8 _ZN8fsshader3runEv
   319: 0000ec61     4 FUNC    WEAK   DEFAULT    8 _ZN8fsshaderC1EP7program
   320: 0000ec65     4 FUNC    WEAK   DEFAULT    8 _ZN8fsshaderC2EP7program
   321: 0000ec69   356 FUNC    GLOBAL DEFAULT    8 _ZN8renderer13createIndicesEii
   322: 0000edcd   300 FUNC    GLOBAL DEFAULT    8 _ZN8renderer14createVerticesEii
   323: 0000ef01    12 FUNC    GLOBAL DEFAULT    8 _ZN8rendererC1Ev
   324: 0000ef0d    12 FUNC    GLOBAL DEFAULT    8 _ZN8rendererC2Ev
   325: 0000ef19     4 FUNC    WEAK   DEFAULT    8 _ZNKSt6vectorIhSaIhEE12_M_check_lenEjPKc
   326: 0000ef1d     4 FUNC    WEAK   DEFAULT    8 _ZNSt11__copy_moveILb1ELb1ESt26random_access_iterator_tagE8__copy_mIhEEPT_PKS3_S6_S4_
   327: 0000ef21     4 FUNC    WEAK   DEFAULT    8 _ZNSt13_Rb_tree_nodeISt4pairIKSs14themeparameterEEC1IIRKS3_EEEDpOT_
   328: 0000ef25     4 FUNC    WEAK   DEFAULT    8 _ZNSt13_Rb_tree_nodeISt4pairIKSs14themeparameterEEC1IJRKS3_EEEDpOT_
   329: 0000ef29     4 FUNC    WEAK   DEFAULT    8 _ZNSt13_Rb_tree_nodeISt4pairIKSs14themeparameterEEC2IIRKS3_EEEDpOT_
   330: 0000ef2d     4 FUNC    WEAK   DEFAULT    8 _ZNSt13_Rb_tree_nodeISt4pairIKSs14themeparameterEEC2IJRKS3_EEEDpOT_
   331: 0000ef31     4 FUNC    WEAK   DEFAULT    8 _ZNSt23mersenne_twister_engineIjLj32ELj624ELj397ELj31ELj2567483615ELj11ELj4294967295ELj7ELj2636928640ELj15ELj4022730752ELj18ELj1812433253EE4seedEj
   332: 0000ef35     4 FUNC    WEAK   DEFAULT    8 _ZNSt23mersenne_twister_engineIjLj32ELj624ELj397ELj31ELj2567483615ELj11ELj4294967295ELj7ELj2636928640ELj15ELj4022730752ELj18ELj1812433253EEclEv
   333: 0000ef39     4 FUNC    WEAK   DEFAULT    8 _ZNSt3mapISs14themeparameterSt4lessISsESaISt4pairIKSsS0_EEEixEOSs
   334: 0000ef3d     4 FUNC    WEAK   DEFAULT    8 _ZNSt3mapISs14themeparameterSt4lessISsESaISt4pairIKSsS0_EEEixERS4_
   335: 0000ef41     4 FUNC    WEAK   DEFAULT    8 _ZNSt3mapISsP12bufferconfigSt4lessISsESaISt4pairIKSsS1_EEEixERS5_
   336: 0000ef45     4 FUNC    WEAK   DEFAULT    8 _ZNSt3mapISsP7uniformSt4lessISsESaISt4pairIKSsS1_EEED1Ev
   337: 0000ef49     4 FUNC    WEAK   DEFAULT    8 _ZNSt3mapISsP7uniformSt4lessISsESaISt4pairIKSsS1_EEED2Ev
   338: 0000ef4d     4 FUNC    WEAK   DEFAULT    8 _ZNSt3mapISsP7uniformSt4lessISsESaISt4pairIKSsS1_EEEixEOSs
   339: 0000ef51     4 FUNC    WEAK   DEFAULT    8 _ZNSt3mapISsP9attributeSt4lessISsESaISt4pairIKSsS1_EEED1Ev
   340: 0000ef55     4 FUNC    WEAK   DEFAULT    8 _ZNSt3mapISsP9attributeSt4lessISsESaISt4pairIKSsS1_EEED2Ev
   341: 0000ef59     4 FUNC    WEAK   DEFAULT    8 _ZNSt3mapISsP9attributeSt4lessISsESaISt4pairIKSsS1_EEEixEOSs
   342: 0000ef5d     4 FUNC    WEAK   DEFAULT    8 _ZNSt3mapIi17RendererInterfaceSt4lessIiESaISt4pairIKiS0_EEED1Ev
   343: 0000ef61     4 FUNC    WEAK   DEFAULT    8 _ZNSt3mapIi17RendererInterfaceSt4lessIiESaISt4pairIKiS0_EEED2Ev
   344: 0000ef65     4 FUNC    WEAK   DEFAULT    8 _ZNSt3mapIi17RendererInterfaceSt4lessIiESaISt4pairIKiS0_EEEixERS4_
   345: 0000ef69     4 FUNC    WEAK   DEFAULT    8 _ZNSt6vectorIP11framebufferSaIS1_EE19_M_emplace_back_auxIIRKS1_EEEvDpOT_
   346: 0000ef6d     4 FUNC    WEAK   DEFAULT    8 _ZNSt6vectorIP11framebufferSaIS1_EE19_M_emplace_back_auxIJRKS1_EEEvDpOT_
   347: 0000ef71     4 FUNC    WEAK   DEFAULT    8 _ZNSt6vectorIP11framebufferSaIS1_EED1Ev
   348: 0000ef75     4 FUNC    WEAK   DEFAULT    8 _ZNSt6vectorIP11framebufferSaIS1_EED2Ev
   349: 0000ef79     4 FUNC    WEAK   DEFAULT    8 _ZNSt6vectorIP12bufferconfigSaIS1_EE19_M_emplace_back_auxIIRKS1_EEEvDpOT_
   350: 0000ef7d     4 FUNC    WEAK   DEFAULT    8 _ZNSt6vectorIP12bufferconfigSaIS1_EE19_M_emplace_back_auxIJRKS1_EEEvDpOT_
   351: 0000ef81     4 FUNC    WEAK   DEFAULT    8 _ZNSt6vectorIP13uniformconfigSaIS1_EE19_M_emplace_back_auxIIRKS1_EEEvDpOT_
   352: 0000ef85     4 FUNC    WEAK   DEFAULT    8 _ZNSt6vectorIP13uniformconfigSaIS1_EE19_M_emplace_back_auxIJRKS1_EEEvDpOT_
   353: 0000ef89     4 FUNC    WEAK   DEFAULT    8 _ZNSt6vectorIhSaIhEE15_M_range_insertIPhEEvN9__gnu_cxx17__normal_iteratorIS3_S1_EET_S7_St20forward_iterator_tag
   354: 0000ef8d     4 FUNC    WEAK   DEFAULT    8 _ZNSt6vectorIjSaIjEE19_M_emplace_back_auxIIRKjEEEvDpOT_
   355: 0000ef91     4 FUNC    WEAK   DEFAULT    8 _ZNSt6vectorIjSaIjEE19_M_emplace_back_auxIJRKjEEEvDpOT_
   356: 0000ef95     4 FUNC    WEAK   DEFAULT    8 _ZNSt8_Rb_treeIP12bufferconfigS1_St9_IdentityIS1_ESt4lessIS1_ESaIS1_EE8_M_eraseEPSt13_Rb_tree_nodeIS1_E
   357: 0000ef99     4 FUNC    WEAK   DEFAULT    8 _ZNSt8_Rb_treeIP13uniformconfigS1_St9_IdentityIS1_ESt4lessIS1_ESaIS1_EE16_M_insert_uniqueIRKS1_EESt4pairISt17_Rb_tree_iteratorIS1_EbEOT_
   358: 0000ef9d     4 FUNC    WEAK   DEFAULT    8 _ZNSt8_Rb_treeIP13uniformconfigS1_St9_IdentityIS1_ESt4lessIS1_ESaIS1_EE5eraseERKS1_
   359: 0000efa1     4 FUNC    WEAK   DEFAULT    8 _ZNSt8_Rb_treeIP13uniformconfigS1_St9_IdentityIS1_ESt4lessIS1_ESaIS1_EE8_M_eraseEPSt13_Rb_tree_nodeIS1_E
   360: 0000efa5     4 FUNC    WEAK   DEFAULT    8 _ZNSt8_Rb_treeISsSt4pairIKSs14themeparameterESt10_Select1stIS3_ESt4lessISsESaIS3_EE13_Rb_tree_implIS7_Lb1EEC1Ev
   361: 0000efa9     4 FUNC    WEAK   DEFAULT    8 _ZNSt8_Rb_treeISsSt4pairIKSs14themeparameterESt10_Select1stIS3_ESt4lessISsESaIS3_EE13_Rb_tree_implIS7_Lb1EEC2Ev
   362: 0000efad     4 FUNC    WEAK   DEFAULT    8 _ZNSt8_Rb_treeISsSt4pairIKSs14themeparameterESt10_Select1stIS3_ESt4lessISsESaIS3_EE14_M_insert_nodeEPSt18_Rb_tree_node_baseSB_PSt13_Rb_tree_nodeIS3_E
   363: 0000efb1     4 FUNC    WEAK   DEFAULT    8 _ZNSt8_Rb_treeISsSt4pairIKSs14themeparameterESt10_Select1stIS3_ESt4lessISsESaIS3_EE22_M_emplace_hint_uniqueIIRKSt21piecewise_construct_tSt5tupleIIOSsEESE_IIEEEEESt17_Rb_tree_iteratorIS3_ESt23_Rb_tree_const_iteratorIS3_EDpOT_
   364: 0000efb5     4 FUNC    WEAK   DEFAULT    8 _ZNSt8_Rb_treeISsSt4pairIKSs14themeparameterESt10_Select1stIS3_ESt4lessISsESaIS3_EE22_M_emplace_hint_uniqueIJRKSt21piecewise_construct_tSt5tupleIJOSsEESE_IJEEEEESt17_Rb_tree_iteratorIS3_ESt23_Rb_tree_const_iteratorIS3_EDpOT_
   365: 0000efb9     4 FUNC    WEAK   DEFAULT    8 _ZNSt8_Rb_treeISsSt4pairIKSs14themeparameterESt10_Select1stIS3_ESt4lessISsESaIS3_EE24_M_get_insert_unique_posERS1_
   366: 0000efbd     4 FUNC    WEAK   DEFAULT    8 _ZNSt8_Rb_treeISsSt4pairIKSs14themeparameterESt10_Select1stIS3_ESt4lessISsESaIS3_EE29_M_get_insert_hint_unique_posESt23_Rb_tree_const_iteratorIS3_ERS1_
   367: 0000efc1     4 FUNC    WEAK   DEFAULT    8 _ZNSt8_Rb_treeISsSt4pairIKSs14themeparameterESt10_Select1stIS3_ESt4lessISsESaIS3_EE4findERS1_
   368: 0000efc5     4 FUNC    WEAK   DEFAULT    8 _ZNSt8_Rb_treeISsSt4pairIKSs14themeparameterESt10_Select1stIS3_ESt4lessISsESaIS3_EE7_M_copyEPKSt13_Rb_tree_nodeIS3_EPSB_
   369: 0000efc9     4 FUNC    WEAK   DEFAULT    8 _ZNSt8_Rb_treeISsSt4pairIKSs14themeparameterESt10_Select1stIS3_ESt4lessISsESaIS3_EE8_M_eraseEPSt13_Rb_tree_nodeIS3_E
   370: 0000efcd     4 FUNC    WEAK   DEFAULT    8 _ZNSt8_Rb_treeISsSt4pairIKSsP12bufferconfigESt10_Select1stIS4_ESt4lessISsESaIS4_EE22_M_emplace_hint_uniqueIIRKSt21piecewise_construct_tSt5tupleIIRS1_EESF_IIEEEEESt17_Rb_tree_iteratorIS4_ESt23_Rb_tree_const_iteratorIS4_EDpOT_
   371: 0000efd1     4 FUNC    WEAK   DEFAULT    8 _ZNSt8_Rb_treeISsSt4pairIKSsP12bufferconfigESt10_Select1stIS4_ESt4lessISsESaIS4_EE22_M_emplace_hint_uniqueIJRKSt21piecewise_construct_tSt5tupleIJRS1_EESF_IJEEEEESt17_Rb_tree_iteratorIS4_ESt23_Rb_tree_const_iteratorIS4_EDpOT_
   372: 0000efd5     4 FUNC    WEAK   DEFAULT    8 _ZNSt8_Rb_treeISsSt4pairIKSsP12bufferconfigESt10_Select1stIS4_ESt4lessISsESaIS4_EE24_M_get_insert_unique_posERS1_
   373: 0000efd9     4 FUNC    WEAK   DEFAULT    8 _ZNSt8_Rb_treeISsSt4pairIKSsP7uniformESt10_Select1stIS4_ESt4lessISsESaIS4_EE22_M_emplace_hint_uniqueIIRKSt21piecewise_construct_tSt5tupleIIOSsEESF_IIEEEEESt17_Rb_tree_iteratorIS4_ESt23_Rb_tree_const_iteratorIS4_EDpOT_
   374: 0000efdd     4 FUNC    WEAK   DEFAULT    8 _ZNSt8_Rb_treeISsSt4pairIKSsP7uniformESt10_Select1stIS4_ESt4lessISsESaIS4_EE22_M_emplace_hint_uniqueIIRKSt21piecewise_construct_tSt5tupleIIRS1_EESF_IIEEEEESt17_Rb_tree_iteratorIS4_ESt23_Rb_tree_const_iteratorIS4_EDpOT_
   375: 0000efe1     4 FUNC    WEAK   DEFAULT    8 _ZNSt8_Rb_treeISsSt4pairIKSsP7uniformESt10_Select1stIS4_ESt4lessISsESaIS4_EE22_M_emplace_hint_uniqueIJRKSt21piecewise_construct_tSt5tupleIJOSsEESF_IJEEEEESt17_Rb_tree_iteratorIS4_ESt23_Rb_tree_const_iteratorIS4_EDpOT_
   376: 0000efe5     4 FUNC    WEAK   DEFAULT    8 _ZNSt8_Rb_treeISsSt4pairIKSsP7uniformESt10_Select1stIS4_ESt4lessISsESaIS4_EE22_M_emplace_hint_uniqueIJRKSt21piecewise_construct_tSt5tupleIJRS1_EESF_IJEEEEESt17_Rb_tree_iteratorIS4_ESt23_Rb_tree_const_iteratorIS4_EDpOT_
   377: 0000efe9     4 FUNC    WEAK   DEFAULT    8 _ZNSt8_Rb_treeISsSt4pairIKSsP7uniformESt10_Select1stIS4_ESt4lessISsESaIS4_EE24_M_get_insert_unique_posERS1_
   378: 0000efed     4 FUNC    WEAK   DEFAULT    8 _ZNSt8_Rb_treeISsSt4pairIKSsP7uniformESt10_Select1stIS4_ESt4lessISsESaIS4_EE8_M_eraseEPSt13_Rb_tree_nodeIS4_E
   379: 0000eff1     4 FUNC    WEAK   DEFAULT    8 _ZNSt8_Rb_treeISsSt4pairIKSsP9attributeESt10_Select1stIS4_ESt4lessISsESaIS4_EE22_M_emplace_hint_uniqueIIRKSt21piecewise_construct_tSt5tupleIIOSsEESF_IIEEEEESt17_Rb_tree_iteratorIS4_ESt23_Rb_tree_const_iteratorIS4_EDpOT_
   380: 0000eff5     4 FUNC    WEAK   DEFAULT    8 _ZNSt8_Rb_treeISsSt4pairIKSsP9attributeESt10_Select1stIS4_ESt4lessISsESaIS4_EE22_M_emplace_hint_uniqueIIRKSt21piecewise_construct_tSt5tupleIIRS1_EESF_IIEEEEESt17_Rb_tree_iteratorIS4_ESt23_Rb_tree_const_iteratorIS4_EDpOT_
   381: 0000eff9     4 FUNC    WEAK   DEFAULT    8 _ZNSt8_Rb_treeISsSt4pairIKSsP9attributeESt10_Select1stIS4_ESt4lessISsESaIS4_EE22_M_emplace_hint_uniqueIJRKSt21piecewise_construct_tSt5tupleIJOSsEESF_IJEEEEESt17_Rb_tree_iteratorIS4_ESt23_Rb_tree_const_iteratorIS4_EDpOT_
   382: 0000effd     4 FUNC    WEAK   DEFAULT    8 _ZNSt8_Rb_treeISsSt4pairIKSsP9attributeESt10_Select1stIS4_ESt4lessISsESaIS4_EE22_M_emplace_hint_uniqueIJRKSt21piecewise_construct_tSt5tupleIJRS1_EESF_IJEEEEESt17_Rb_tree_iteratorIS4_ESt23_Rb_tree_const_iteratorIS4_EDpOT_
   383: 0000f001     4 FUNC    WEAK   DEFAULT    8 _ZNSt8_Rb_treeISsSt4pairIKSsP9attributeESt10_Select1stIS4_ESt4lessISsESaIS4_EE24_M_get_insert_unique_posERS1_
   384: 0000f005     4 FUNC    WEAK   DEFAULT    8 _ZNSt8_Rb_treeISsSt4pairIKSsP9attributeESt10_Select1stIS4_ESt4lessISsESaIS4_EE8_M_eraseEPSt13_Rb_tree_nodeIS4_E
   385: 0000f009     4 FUNC    WEAK   DEFAULT    8 _ZNSt8_Rb_treeIiSt4pairIKi17RendererInterfaceESt10_Select1stIS3_ESt4lessIiESaIS3_EE22_M_emplace_hint_uniqueIIRKSt21piecewise_construct_tSt5tupleIIRS1_EESE_IIEEEEESt17_Rb_tree_iteratorIS3_ESt23_Rb_tree_const_iteratorIS3_EDpOT_
   386: 0000f00d     4 FUNC    WEAK   DEFAULT    8 _ZNSt8_Rb_treeIiSt4pairIKi17RendererInterfaceESt10_Select1stIS3_ESt4lessIiESaIS3_EE22_M_emplace_hint_uniqueIJRKSt21piecewise_construct_tSt5tupleIJRS1_EESE_IJEEEEESt17_Rb_tree_iteratorIS3_ESt23_Rb_tree_const_iteratorIS3_EDpOT_
   387: 0000f011     4 FUNC    WEAK   DEFAULT    8 _ZNSt8_Rb_treeIiSt4pairIKi17RendererInterfaceESt10_Select1stIS3_ESt4lessIiESaIS3_EE24_M_get_insert_unique_posERS1_
   388: 0000f015     4 FUNC    WEAK   DEFAULT    8 _ZNSt8_Rb_treeIiSt4pairIKi17RendererInterfaceESt10_Select1stIS3_ESt4lessIiESaIS3_EE8_M_eraseEPSt13_Rb_tree_nodeIS3_E
   389: 0000f019     4 FUNC    WEAK   DEFAULT    8 _ZStltIcSt11char_traitsIcESaIcEEbRKSbIT_T0_T1_ES8_
   390: 0000f01d     4 FUNC    WEAK   DEFAULT    8 _ZStplIcSt11char_traitsIcESaIcEESbIT_T0_T1_EOS6_PKS3_
   391: 0000f021     4 FUNC    WEAK   DEFAULT    8 _ZStplIcSt11char_traitsIcESaIcEESbIT_T0_T1_EOS6_S7_
   392: 0000f025     4 FUNC    WEAK   DEFAULT    8 _ZStplIcSt11char_traitsIcESaIcEESbIT_T0_T1_EPKS3_RKS6_
   393: 0000f02d     4 FUNC    WEAK   DEFAULT    8 __aeabi_idiv0
   394: 0000f031     4 FUNC    WEAK   DEFAULT    8 __aeabi_ldiv0
   395: 00007dd9   196 FUNC    GLOBAL DEFAULT    8 __divsi3
   396: 00018060     4 OBJECT  GLOBAL DEFAULT   18 _ZN7program8uniformsE
   397: 0001805c     4 OBJECT  GLOBAL DEFAULT   18 _ZN7program7attribsE
   398: 00018058     4 OBJECT  GLOBAL DEFAULT   18 _ZN7program5boundE
   399: 00018054     4 OBJECT  GLOBAL DEFAULT   18 _ZN7program11attribindexE
   400: 00018050     4 OBJECT  GLOBAL DEFAULT   18 _ZN11framebuffer7fbstackE
   401: 00017c78    16 OBJECT  WEAK   DEFAULT   14 _ZTV12LodePNGState
   402: 00017c88    16 OBJECT  GLOBAL DEFAULT   14 _ZTVN7lodepng5StateE
   403: 00016b20    16 OBJECT  GLOBAL DEFAULT   11 lodepng_default_decompress_settings
   404: 00016b30    36 OBJECT  GLOBAL DEFAULT   11 lodepng_default_compress_settings
   405: 00007d2d   142 FUNC    GLOBAL DEFAULT    8 __udivsi3
   406: 000093d9     0 FUNC    GLOBAL DEFAULT    8 __gnu_Unwind_Restore_VFP_D
   407: 000093c9     0 FUNC    GLOBAL DEFAULT    8 __gnu_Unwind_Restore_VFP
   408: 000093e9     0 FUNC    GLOBAL DEFAULT    8 __gnu_Unwind_Restore_VFP_D_16_to_31
   409: 000093f9     0 FUNC    GLOBAL DEFAULT    8 __gnu_Unwind_Restore_WMMXD
   410: 00009481     0 FUNC    GLOBAL DEFAULT    8 __gnu_Unwind_Restore_WMMXC
   411: 000093b1    24 FUNC    GLOBAL DEFAULT    8 restore_core_regs
   412: 00008d19     4 FUNC    GLOBAL DEFAULT    8 _Unwind_GetCFA
   413: 00008d1d    98 FUNC    GLOBAL DEFAULT    8 __gnu_Unwind_RaiseException
   414: 00008d7f    20 FUNC    GLOBAL DEFAULT    8 __gnu_Unwind_ForcedUnwind
   415: 00008d93    66 FUNC    GLOBAL DEFAULT    8 __gnu_Unwind_Resume
   416: 00008dd5    16 FUNC    GLOBAL DEFAULT    8 __gnu_Unwind_Resume_or_Rethrow
   417: 00008de5     2 FUNC    GLOBAL DEFAULT    8 _Unwind_Complete
   418: 00008de7    14 FUNC    GLOBAL DEFAULT    8 _Unwind_DeleteException
   419: 00008df5    44 FUNC    GLOBAL DEFAULT    8 _Unwind_VRS_Get
   420: 00008e39    44 FUNC    GLOBAL DEFAULT    8 _Unwind_VRS_Set
   421: 00008e7f   122 FUNC    GLOBAL DEFAULT    8 __gnu_Unwind_Backtrace
   422: 000095a3   606 FUNC    GLOBAL DEFAULT    8 __gnu_unwind_execute
   423: 0000918d   546 FUNC    GLOBAL DEFAULT    8 _Unwind_VRS_Pop
   424: 0000943d     0 FUNC    GLOBAL DEFAULT    8 __gnu_Unwind_Save_WMMXD
   425: 00009495     0 FUNC    GLOBAL DEFAULT    8 __gnu_Unwind_Save_WMMXC
   426: 000093e1     0 FUNC    GLOBAL DEFAULT    8 __gnu_Unwind_Save_VFP_D
   427: 000093d1     0 FUNC    GLOBAL DEFAULT    8 __gnu_Unwind_Save_VFP
   428: 000093f1     0 FUNC    GLOBAL DEFAULT    8 __gnu_Unwind_Save_VFP_D_16_to_31
   429: 000093b1    24 FUNC    GLOBAL DEFAULT    8 __restore_core_regs
   430: 000094a9    34 FUNC    GLOBAL DEFAULT    8 ___Unwind_RaiseException
   431: 000094a9    34 FUNC    GLOBAL DEFAULT    8 _Unwind_RaiseException
   432: 000094cd    34 FUNC    GLOBAL DEFAULT    8 ___Unwind_Resume
   433: 000094cd    34 FUNC    GLOBAL DEFAULT    8 _Unwind_Resume
   434: 000094f1    34 FUNC    GLOBAL DEFAULT    8 ___Unwind_Resume_or_Rethrow
   435: 000094f1    34 FUNC    GLOBAL DEFAULT    8 _Unwind_Resume_or_Rethrow
   436: 00009515    34 FUNC    GLOBAL DEFAULT    8 ___Unwind_ForcedUnwind
   437: 00009515    34 FUNC    GLOBAL DEFAULT    8 _Unwind_ForcedUnwind
   438: 00009539    34 FUNC    GLOBAL DEFAULT    8 ___Unwind_Backtrace
   439: 00009539    34 FUNC    GLOBAL DEFAULT    8 _Unwind_Backtrace
   440: 00009801    42 FUNC    GLOBAL DEFAULT    8 __gnu_unwind_frame
   441: 0000982b    10 FUNC    GLOBAL DEFAULT    8 _Unwind_GetRegionStart
   442: 00009835    18 FUNC    GLOBAL DEFAULT    8 _Unwind_GetLanguageSpecificData
   443: 00009847     6 FUNC    GLOBAL DEFAULT    8 _Unwind_GetDataRelBase
   444: 0000984d     6 FUNC    GLOBAL DEFAULT    8 _Unwind_GetTextRelBase
   445: 00018050     0 NOTYPE  GLOBAL DEFAULT  ABS _edata
   446: 000188b5     0 NOTYPE  GLOBAL DEFAULT  ABS _end
